; ModuleID = '29/1394.c'
source_filename = "29/1394.c"
target datalayout = "e-m:e-p270:32:32-p271:32:32-p272:64:64-i64:64-f80:128-n8:16:32:64-S128"
target triple = "x86_64-pc-linux-gnu"

@.str = private unnamed_addr constant [3 x i8] c"%d\00", align 1
@.str.1 = private unnamed_addr constant [6 x i8] c"%.3f\0A\00", align 1

; Function Attrs: noinline nounwind uwtable
define dso_local i32 @main() #0 {
  %1 = alloca i32, align 4
  %2 = alloca i32, align 4
  %3 = alloca i32, align 4
  %4 = alloca float, align 4
  %5 = alloca float, align 4
  %6 = alloca float, align 4
  %7 = alloca float, align 4
  %8 = alloca float*, align 8
  %9 = alloca i32, align 4
  %10 = alloca i32, align 4
  %11 = alloca i32, align 4
  store i32 0, i32* %1, align 4
  store float 1.000000e+00, float* %4, align 4
  store float 2.000000e+00, float* %5, align 4
  store float 0.000000e+00, float* %7, align 4
  %12 = call i32 (i8*, ...) @__isoc99_scanf(i8* getelementptr inbounds ([3 x i8], [3 x i8]* @.str, i64 0, i64 0), i32* %2)
  %13 = load i32, i32* %2, align 4
  %14 = sext i32 %13 to i64
  %15 = mul i64 4, %14
  %16 = call noalias i8* @malloc(i64 %15) #3
  %17 = bitcast i8* %16 to float*
  store float* %17, float** %8, align 8
  store i32 0, i32* %9, align 4
  br label %18

18:                                               ; preds = %48, %0
  %19 = load i32, i32* %9, align 4
  %20 = load i32, i32* %2, align 4
  %21 = icmp slt i32 %19, %20
  br i1 %21, label %22, label %51

22:                                               ; preds = %18
  %23 = call i32 (i8*, ...) @__isoc99_scanf(i8* getelementptr inbounds ([3 x i8], [3 x i8]* @.str, i64 0, i64 0), i32* %3)
  store i32 0, i32* %10, align 4
  br label %24

24:                                               ; preds = %39, %22
  %25 = load i32, i32* %10, align 4
  %26 = load i32, i32* %3, align 4
  %27 = icmp slt i32 %25, %26
  br i1 %27, label %28, label %42

28:                                               ; preds = %24
  %29 = load float, float* %5, align 4
  %30 = load float, float* %4, align 4
  %31 = fdiv float %29, %30
  %32 = load float, float* %7, align 4
  %33 = fadd float %32, %31
  store float %33, float* %7, align 4
  %34 = load float, float* %4, align 4
  %35 = load float, float* %5, align 4
  %36 = fadd float %34, %35
  store float %36, float* %6, align 4
  %37 = load float, float* %5, align 4
  store float %37, float* %4, align 4
  %38 = load float, float* %6, align 4
  store float %38, float* %5, align 4
  br label %39

39:                                               ; preds = %28
  %40 = load i32, i32* %10, align 4
  %41 = add nsw i32 %40, 1
  store i32 %41, i32* %10, align 4
  br label %24

42:                                               ; preds = %24
  %43 = load float, float* %7, align 4
  %44 = load float*, float** %8, align 8
  %45 = load i32, i32* %9, align 4
  %46 = sext i32 %45 to i64
  %47 = getelementptr inbounds float, float* %44, i64 %46
  store float %43, float* %47, align 4
  store float 0.000000e+00, float* %7, align 4
  store float 1.000000e+00, float* %4, align 4
  store float 2.000000e+00, float* %5, align 4
  br label %48

48:                                               ; preds = %42
  %49 = load i32, i32* %9, align 4
  %50 = add nsw i32 %49, 1
  store i32 %50, i32* %9, align 4
  br label %18

51:                                               ; preds = %18
  store i32 0, i32* %11, align 4
  br label %52

52:                                               ; preds = %64, %51
  %53 = load i32, i32* %11, align 4
  %54 = load i32, i32* %2, align 4
  %55 = icmp slt i32 %53, %54
  br i1 %55, label %56, label %67

56:                                               ; preds = %52
  %57 = load float*, float** %8, align 8
  %58 = load i32, i32* %11, align 4
  %59 = sext i32 %58 to i64
  %60 = getelementptr inbounds float, float* %57, i64 %59
  %61 = load float, float* %60, align 4
  %62 = fpext float %61 to double
  %63 = call i32 (i8*, ...) @printf(i8* getelementptr inbounds ([6 x i8], [6 x i8]* @.str.1, i64 0, i64 0), double %62)
  br label %64

64:                                               ; preds = %56
  %65 = load i32, i32* %11, align 4
  %66 = add nsw i32 %65, 1
  store i32 %66, i32* %11, align 4
  br label %52

67:                                               ; preds = %52
  ret i32 0
}

declare dso_local i32 @__isoc99_scanf(i8*, ...) #1

; Function Attrs: nounwind
declare dso_local noalias i8* @malloc(i64) #2

declare dso_local i32 @printf(i8*, ...) #1


!llvm.module.flags = !{!0}
!llvm.ident = !{!1}

!0 = !{i32 1, !"wchar_size", i32 4}
!1 = !{!"clang version 10.0.0-4ubuntu1 "}
